target datalayout = "e-m:e-p270:32:32-p271:32:32-p272:64:64-i64:64-i128:128-f80:128-n8:16:32:64-S128"
target triple = "x86_64-unknown-linux-gnu"

%"class.facebook::jsi::Value" = type { i32, %"union.facebook::jsi::Value::Data" }
%"union.facebook::jsi::Value::Data" = type { double }
%"class.facebook::jsi::Pointer" = type { ptr }

; Function Attrs: mustprogress nounwind uwtable
define linkonce_odr void @_ZN8facebook3jsi5Value4DataC2Ev(ptr noundef nonnull align 8 dereferenceable(8) %this) unnamed_addr #0 comdat align 2 {
entry:
  %this.addr = alloca ptr, align 8
  store ptr %this, ptr %this.addr, align 8
  ret void
}

; Function Attrs: mustprogress nounwind uwtable
define linkonce_odr void @_ZN8facebook3jsi7PointerC2EPNS0_7Runtime12PointerValueE(ptr noundef nonnull align 8 dereferenceable(8) %this, ptr noundef %ptr) unnamed_addr #0 comdat align 2 {
entry:
  %this.addr = alloca ptr, align 8
  %ptr.addr = alloca ptr, align 8
  store ptr %this, ptr %this.addr, align 8
  store ptr %ptr, ptr %ptr.addr, align 8
  %this1 = load ptr, ptr %this.addr, align 8
  %ptr_ = getelementptr inbounds %"class.facebook::jsi::Pointer", ptr %this1, i32 0, i32 0
  %0 = load ptr, ptr %ptr.addr, align 8
  store ptr %0, ptr %ptr_, align 8
  ret void
}

; Function Attrs: mustprogress uwtable
define linkonce_odr void @_ZN8facebook3jsi5ValueC2ENS1_9ValueKindE(ptr noundef nonnull align 8 dereferenceable(16) %this, i32 noundef %kind) unnamed_addr #2 comdat align 2 {
entry:
  %this.addr = alloca ptr, align 8
  %kind.addr = alloca i32, align 4
  store ptr %this, ptr %this.addr, align 8
  store i32 %kind, ptr %kind.addr, align 4
  %this1 = load ptr, ptr %this.addr, align 8
  %kind_ = getelementptr inbounds %"class.facebook::jsi::Value", ptr %this1, i32 0, i32 0
  %0 = load i32, ptr %kind.addr, align 4
  store i32 %0, ptr %kind_, align 8
  %data_ = getelementptr inbounds %"class.facebook::jsi::Value", ptr %this1, i32 0, i32 1
  call void @_ZN8facebook3jsi5Value4DataC2Ev(ptr noundef nonnull align 8 dereferenceable(8) %data_)
  ret void
}

; Function Attrs: mustprogress uwtable
define void @_ZN8facebook3jsi5ValueC2ERNS0_7RuntimeERKS1_(ptr noundef nonnull align 8 dereferenceable(16) %this, ptr noundef nonnull align 8 dereferenceable(8) %runtime, ptr noundef nonnull align 8 dereferenceable(16) %other) unnamed_addr #2 align 2 personality ptr @__gxx_personality_v0 {
entry:
  %this.addr = alloca ptr, align 8
  %runtime.addr = alloca ptr, align 8
  %other.addr = alloca ptr, align 8
  %exn.slot = alloca ptr, align 8
  %ehselector.slot = alloca i32, align 4
  store ptr %this, ptr %this.addr, align 8
  store ptr %runtime, ptr %runtime.addr, align 8
  store ptr %other, ptr %other.addr, align 8
  %this1 = load ptr, ptr %this.addr, align 8
  %0 = load ptr, ptr %other.addr, align 8
  %kind_ = getelementptr inbounds %"class.facebook::jsi::Value", ptr %0, i32 0, i32 0
  %1 = load i32, ptr %kind_, align 8
  call void @_ZN8facebook3jsi5ValueC2ENS1_9ValueKindE(ptr noundef nonnull align 8 dereferenceable(16) %this1, i32 noundef %1)
  %kind_2 = getelementptr inbounds %"class.facebook::jsi::Value", ptr %this1, i32 0, i32 0
  %2 = load i32, ptr %kind_2, align 8
  %cmp = icmp eq i32 %2, 2
  br i1 %cmp, label %if.then, label %if.else

if.then:                                          ; preds = %entry
  %3 = load ptr, ptr %other.addr, align 8
  %data_ = getelementptr inbounds %"class.facebook::jsi::Value", ptr %3, i32 0, i32 1
  %4 = load i8, ptr %data_, align 8
  %tobool = trunc i8 %4 to i1
  %data_3 = getelementptr inbounds %"class.facebook::jsi::Value", ptr %this1, i32 0, i32 1
  %frombool = zext i1 %tobool to i8
  store i8 %frombool, ptr %data_3, align 8
  br label %if.end56

if.else:                                          ; preds = %entry
  %kind_4 = getelementptr inbounds %"class.facebook::jsi::Value", ptr %this1, i32 0, i32 0
  %5 = load i32, ptr %kind_4, align 8
  %cmp5 = icmp eq i32 %5, 3
  br i1 %cmp5, label %if.then6, label %if.else9

if.then6:                                         ; preds = %if.else
  %6 = load ptr, ptr %other.addr, align 8
  %data_7 = getelementptr inbounds %"class.facebook::jsi::Value", ptr %6, i32 0, i32 1
  %7 = load double, ptr %data_7, align 8
  %data_8 = getelementptr inbounds %"class.facebook::jsi::Value", ptr %this1, i32 0, i32 1
  store double %7, ptr %data_8, align 8
  br label %if.end55

if.else9:                                         ; preds = %if.else
  %kind_10 = getelementptr inbounds %"class.facebook::jsi::Value", ptr %this1, i32 0, i32 0
  %8 = load i32, ptr %kind_10, align 8
  %cmp11 = icmp eq i32 %8, 4
  br i1 %cmp11, label %if.then12, label %if.else16

if.then12:                                        ; preds = %if.else9
  %data_13 = getelementptr inbounds %"class.facebook::jsi::Value", ptr %this1, i32 0, i32 1
  %9 = load ptr, ptr %runtime.addr, align 8
  %10 = load ptr, ptr %other.addr, align 8
  %data_14 = getelementptr inbounds %"class.facebook::jsi::Value", ptr %10, i32 0, i32 1
  %ptr_ = getelementptr inbounds %"class.facebook::jsi::Pointer", ptr %data_14, i32 0, i32 0
  %11 = load ptr, ptr %ptr_, align 8
  %vtable = load ptr, ptr %9, align 8
  %vfn = getelementptr inbounds ptr, ptr %vtable, i64 10
  %12 = load ptr, ptr %vfn, align 8
  %call = invoke noundef ptr %12(ptr noundef nonnull align 8 dereferenceable(8) %9, ptr noundef %11)
          to label %invoke.cont unwind label %lpad

invoke.cont:                                      ; preds = %if.then12
  invoke void @_ZN8facebook3jsi7PointerC2EPNS0_7Runtime12PointerValueE(ptr noundef nonnull align 8 dereferenceable(8) %data_13, ptr noundef %call)
          to label %invoke.cont15 unwind label %lpad

invoke.cont15:                                    ; preds = %invoke.cont
  br label %if.end54

lpad:                                             ; preds = %invoke.cont49, %if.then43, %invoke.cont37, %if.then31, %invoke.cont25, %if.then19, %invoke.cont, %if.then12
  %13 = landingpad { ptr, i32 }
          cleanup
  %14 = extractvalue { ptr, i32 } %13, 0
  store ptr %14, ptr %exn.slot, align 8
  %15 = extractvalue { ptr, i32 } %13, 1
  store i32 %15, ptr %ehselector.slot, align 4
  call void @_ZN8facebook3jsi5ValueD2Ev(ptr noundef nonnull align 8 dereferenceable(16) %this1) #6
  br label %eh.resume

if.else16:                                        ; preds = %if.else9
  %kind_17 = getelementptr inbounds %"class.facebook::jsi::Value", ptr %this1, i32 0, i32 0
  %16 = load i32, ptr %kind_17, align 8
  %cmp18 = icmp eq i32 %16, 5
  br i1 %cmp18, label %if.then19, label %if.else28

if.then19:                                        ; preds = %if.else16
  %data_20 = getelementptr inbounds %"class.facebook::jsi::Value", ptr %this1, i32 0, i32 1
  %17 = load ptr, ptr %runtime.addr, align 8
  %18 = load ptr, ptr %other.addr, align 8
  %data_21 = getelementptr inbounds %"class.facebook::jsi::Value", ptr %18, i32 0, i32 1
  %ptr_22 = getelementptr inbounds %"class.facebook::jsi::Pointer", ptr %data_21, i32 0, i32 0
  %19 = load ptr, ptr %ptr_22, align 8
  %vtable23 = load ptr, ptr %17, align 8
  %vfn24 = getelementptr inbounds ptr, ptr %vtable23, i64 11
  %20 = load ptr, ptr %vfn24, align 8
  %call26 = invoke noundef ptr %20(ptr noundef nonnull align 8 dereferenceable(8) %17, ptr noundef %19)
          to label %invoke.cont25 unwind label %lpad

invoke.cont25:                                    ; preds = %if.then19
  invoke void @_ZN8facebook3jsi7PointerC2EPNS0_7Runtime12PointerValueE(ptr noundef nonnull align 8 dereferenceable(8) %data_20, ptr noundef %call26)
          to label %invoke.cont27 unwind label %lpad

invoke.cont27:                                    ; preds = %invoke.cont25
  br label %if.end53

if.else28:                                        ; preds = %if.else16
  %kind_29 = getelementptr inbounds %"class.facebook::jsi::Value", ptr %this1, i32 0, i32 0
  %21 = load i32, ptr %kind_29, align 8
  %cmp30 = icmp eq i32 %21, 6
  br i1 %cmp30, label %if.then31, label %if.else40

if.then31:                                        ; preds = %if.else28
  %data_32 = getelementptr inbounds %"class.facebook::jsi::Value", ptr %this1, i32 0, i32 1
  %22 = load ptr, ptr %runtime.addr, align 8
  %23 = load ptr, ptr %other.addr, align 8
  %data_33 = getelementptr inbounds %"class.facebook::jsi::Value", ptr %23, i32 0, i32 1
  %ptr_34 = getelementptr inbounds %"class.facebook::jsi::Pointer", ptr %data_33, i32 0, i32 0
  %24 = load ptr, ptr %ptr_34, align 8
  %vtable35 = load ptr, ptr %22, align 8
  %vfn36 = getelementptr inbounds ptr, ptr %vtable35, i64 12
  %25 = load ptr, ptr %vfn36, align 8
  %call38 = invoke noundef ptr %25(ptr noundef nonnull align 8 dereferenceable(8) %22, ptr noundef %24)
          to label %invoke.cont37 unwind label %lpad

invoke.cont37:                                    ; preds = %if.then31
  invoke void @_ZN8facebook3jsi7PointerC2EPNS0_7Runtime12PointerValueE(ptr noundef nonnull align 8 dereferenceable(8) %data_32, ptr noundef %call38)
          to label %invoke.cont39 unwind label %lpad

invoke.cont39:                                    ; preds = %invoke.cont37
  br label %if.end52

if.else40:                                        ; preds = %if.else28
  %kind_41 = getelementptr inbounds %"class.facebook::jsi::Value", ptr %this1, i32 0, i32 0
  %26 = load i32, ptr %kind_41, align 8
  %cmp42 = icmp sge i32 %26, 7
  br i1 %cmp42, label %if.then43, label %if.end

if.then43:                                        ; preds = %if.else40
  %data_44 = getelementptr inbounds %"class.facebook::jsi::Value", ptr %this1, i32 0, i32 1
  %27 = load ptr, ptr %runtime.addr, align 8
  %28 = load ptr, ptr %other.addr, align 8
  %data_45 = getelementptr inbounds %"class.facebook::jsi::Value", ptr %28, i32 0, i32 1
  %ptr_46 = getelementptr inbounds %"class.facebook::jsi::Pointer", ptr %data_45, i32 0, i32 0
  %29 = load ptr, ptr %ptr_46, align 8
  %vtable47 = load ptr, ptr %27, align 8
  %vfn48 = getelementptr inbounds ptr, ptr %vtable47, i64 13
  %30 = load ptr, ptr %vfn48, align 8
  %call50 = invoke noundef ptr %30(ptr noundef nonnull align 8 dereferenceable(8) %27, ptr noundef %29)
          to label %invoke.cont49 unwind label %lpad

invoke.cont49:                                    ; preds = %if.then43
  invoke void @_ZN8facebook3jsi7PointerC2EPNS0_7Runtime12PointerValueE(ptr noundef nonnull align 8 dereferenceable(8) %data_44, ptr noundef %call50)
          to label %invoke.cont51 unwind label %lpad

invoke.cont51:                                    ; preds = %invoke.cont49
  br label %if.end

if.end:                                           ; preds = %invoke.cont51, %if.else40
  br label %if.end52

if.end52:                                         ; preds = %if.end, %invoke.cont39
  br label %if.end53

if.end53:                                         ; preds = %if.end52, %invoke.cont27
  br label %if.end54

if.end54:                                         ; preds = %if.end53, %invoke.cont15
  br label %if.end55

if.end55:                                         ; preds = %if.end54, %if.then6
  br label %if.end56

if.end56:                                         ; preds = %if.end55, %if.then
  ret void

eh.resume:                                        ; preds = %lpad
  %exn = load ptr, ptr %exn.slot, align 8
  %sel = load i32, ptr %ehselector.slot, align 4
  %lpad.val = insertvalue { ptr, i32 } poison, ptr %exn, 0
  %lpad.val57 = insertvalue { ptr, i32 } %lpad.val, i32 %sel, 1
  resume { ptr, i32 } %lpad.val57
}