; Function Attrs: mustprogress uwtable
define void @_ZN8facebook3jsi5ValueC2ERNS0_7RuntimeERKS1_(ptr nocapture noundef nonnull align 8 dereferenceable(16) %this, ptr noundef nonnull align 8 dereferenceable(8) %runtime, ptr nocapture noundef nonnull readonly align 8 dereferenceable(16) %other) unnamed_addr #11 align 2 personality ptr @__gxx_personality_v0 {
entry:
  %0 = load i32, ptr %other, align 8
  store i32 %0, ptr %this, align 8
  switch i32 %0, label %if.else40 [
    i32 2, label %if.then
    i32 3, label %if.then6
    i32 4, label %if.then12
    i32 5, label %if.then19
    i32 6, label %if.then31
  ]

if.then:                                          ; preds = %entry
  %data_ = getelementptr inbounds i8, ptr %other, i64 8
  %1 = load i8, ptr %data_, align 8
  %2 = and i8 %1, 1
  %data_3 = getelementptr inbounds i8, ptr %this, i64 8
  store i8 %2, ptr %data_3, align 8
  br label %if.end56

if.then6:                                         ; preds = %entry
  %data_7 = getelementptr inbounds i8, ptr %other, i64 8
  %3 = load double, ptr %data_7, align 8
  %data_8 = getelementptr inbounds i8, ptr %this, i64 8
  store double %3, ptr %data_8, align 8
  br label %if.end56

if.then12:                                        ; preds = %entry
  %data_14 = getelementptr inbounds i8, ptr %other, i64 8
  %4 = load ptr, ptr %data_14, align 8
  %vtable = load ptr, ptr %runtime, align 8
  %vfn = getelementptr inbounds i8, ptr %vtable, i64 80
  %5 = load ptr, ptr %vfn, align 8
  %call = invoke noundef ptr %5(ptr noundef nonnull align 8 dereferenceable(8) %runtime, ptr noundef %4)
          to label %invoke.cont unwind label %lpad

invoke.cont:                                      ; preds = %if.then12
  %data_13 = getelementptr inbounds i8, ptr %this, i64 8
  store ptr %call, ptr %data_13, align 8
  br label %if.end56

lpad:                                             ; preds = %if.then43, %if.then31, %if.then19, %if.then12
  %6 = landingpad { ptr, i32 }
          cleanup
  tail call void @_ZN8facebook3jsi5ValueD2Ev(ptr noundef nonnull align 8 dereferenceable(16) %this) #23
  resume { ptr, i32 } %6

if.then19:                                        ; preds = %entry
  %data_21 = getelementptr inbounds i8, ptr %other, i64 8
  %7 = load ptr, ptr %data_21, align 8
  %vtable23 = load ptr, ptr %runtime, align 8
  %vfn24 = getelementptr inbounds i8, ptr %vtable23, i64 88
  %8 = load ptr, ptr %vfn24, align 8
  %call26 = invoke noundef ptr %8(ptr noundef nonnull align 8 dereferenceable(8) %runtime, ptr noundef %7)
          to label %invoke.cont25 unwind label %lpad

invoke.cont25:                                    ; preds = %if.then19
  %data_20 = getelementptr inbounds i8, ptr %this, i64 8
  store ptr %call26, ptr %data_20, align 8
  br label %if.end56

if.then31:                                        ; preds = %entry
  %data_33 = getelementptr inbounds i8, ptr %other, i64 8
  %9 = load ptr, ptr %data_33, align 8
  %vtable35 = load ptr, ptr %runtime, align 8
  %vfn36 = getelementptr inbounds i8, ptr %vtable35, i64 96
  %10 = load ptr, ptr %vfn36, align 8
  %call38 = invoke noundef ptr %10(ptr noundef nonnull align 8 dereferenceable(8) %runtime, ptr noundef %9)
          to label %invoke.cont37 unwind label %lpad

invoke.cont37:                                    ; preds = %if.then31
  %data_32 = getelementptr inbounds i8, ptr %this, i64 8
  store ptr %call38, ptr %data_32, align 8
  br label %if.end56

if.else40:                                        ; preds = %entry
  %cmp42 = icmp sgt i32 %0, 6
  br i1 %cmp42, label %if.then43, label %if.end56

if.then43:                                        ; preds = %if.else40
  %data_45 = getelementptr inbounds i8, ptr %other, i64 8
  %11 = load ptr, ptr %data_45, align 8
  %vtable47 = load ptr, ptr %runtime, align 8
  %vfn48 = getelementptr inbounds i8, ptr %vtable47, i64 104
  %12 = load ptr, ptr %vfn48, align 8
  %call50 = invoke noundef ptr %12(ptr noundef nonnull align 8 dereferenceable(8) %runtime, ptr noundef %11)
          to label %invoke.cont49 unwind label %lpad

invoke.cont49:                                    ; preds = %if.then43
  %data_44 = getelementptr inbounds i8, ptr %this, i64 8
  store ptr %call50, ptr %data_44, align 8
  br label %if.end56

if.end56:                                         ; preds = %if.then6, %invoke.cont25, %if.else40, %invoke.cont49, %invoke.cont37, %invoke.cont, %if.then
  ret void
}